; Function Attrs: mustprogress uwtable
define dso_local void @_ZN3net14QuicHeaderListC2Ev(ptr noundef nonnull align 8 dereferenceable(96) %this) unnamed_addr #0 align 2 personality ptr @__gxx_personality_v0 {
entry:
  store ptr getelementptr inbounds ({ [7 x ptr] }, ptr @_ZTVN3net14QuicHeaderListE, i64 0, i32 0, i64 2), ptr %this, align 8
  %header_list_ = getelementptr inbounds i8, ptr %this, i64 8
  tail call void @llvm.memset.p0.i64(ptr noundef nonnull align 8 dereferenceable(80) %header_list_, i8 0, i64 80, i1 false)
  tail call void @_ZNSt11_Deque_baseISt4pairINSt7__cxx1112basic_stringIcSt11char_traitsIcESaIcEEES6_ESaIS7_EE17_M_initialize_mapEm(ptr noundef nonnull align 8 dereferenceable(80) %header_list_, i64 noundef 0)
  %uncompressed_header_bytes_ = getelementptr inbounds i8, ptr %this, i64 88
  store i64 0, ptr %uncompressed_header_bytes_, align 8
  ret void
}